
test:     file format elf64-x86-64


Disassembly of section .init:

00000000004003e0 <_init>:
  4003e0:	48 83 ec 08          	sub    rsp,0x8
  4003e4:	48 8b 05 0d 0c 20 00 	mov    rax,QWORD PTR [rip+0x200c0d]        # 600ff8 <__gmon_start__>
  4003eb:	48 85 c0             	test   rax,rax
  4003ee:	74 05                	je     4003f5 <_init+0x15>
  4003f0:	e8 3b 00 00 00       	call   400430 <__gmon_start__@plt>
  4003f5:	48 83 c4 08          	add    rsp,0x8
  4003f9:	c3                   	ret    

Disassembly of section .plt:

0000000000400400 <.plt>:
  400400:	ff 35 02 0c 20 00    	push   QWORD PTR [rip+0x200c02]        # 601008 <_GLOBAL_OFFSET_TABLE_+0x8>
  400406:	ff 25 04 0c 20 00    	jmp    QWORD PTR [rip+0x200c04]        # 601010 <_GLOBAL_OFFSET_TABLE_+0x10>
  40040c:	0f 1f 40 00          	nop    DWORD PTR [rax+0x0]

0000000000400410 <printf@plt>:
  400410:	ff 25 02 0c 20 00    	jmp    QWORD PTR [rip+0x200c02]        # 601018 <printf@GLIBC_2.2.5>
  400416:	68 00 00 00 00       	push   0x0
  40041b:	e9 e0 ff ff ff       	jmp    400400 <.plt>

0000000000400420 <__libc_start_main@plt>:
  400420:	ff 25 fa 0b 20 00    	jmp    QWORD PTR [rip+0x200bfa]        # 601020 <__libc_start_main@GLIBC_2.2.5>
  400426:	68 01 00 00 00       	push   0x1
  40042b:	e9 d0 ff ff ff       	jmp    400400 <.plt>

0000000000400430 <__gmon_start__@plt>:
  400430:	ff 25 f2 0b 20 00    	jmp    QWORD PTR [rip+0x200bf2]        # 601028 <__gmon_start__>
  400436:	68 02 00 00 00       	push   0x2
  40043b:	e9 c0 ff ff ff       	jmp    400400 <.plt>

Disassembly of section .text:

0000000000400440 <_start>:
  400440:	31 ed                	xor    ebp,ebp
  400442:	49 89 d1             	mov    r9,rdx
  400445:	5e                   	pop    rsi
  400446:	48 89 e2             	mov    rdx,rsp
  400449:	48 83 e4 f0          	and    rsp,0xfffffffffffffff0
  40044d:	50                   	push   rax
  40044e:	54                   	push   rsp
  40044f:	49 c7 c0 40 07 40 00 	mov    r8,0x400740
  400456:	48 c7 c1 d0 06 40 00 	mov    rcx,0x4006d0
  40045d:	48 c7 c7 50 05 40 00 	mov    rdi,0x400550
  400464:	e8 b7 ff ff ff       	call   400420 <__libc_start_main@plt>
  400469:	f4                   	hlt    
  40046a:	66 0f 1f 44 00 00    	nop    WORD PTR [rax+rax*1+0x0]

0000000000400470 <deregister_tm_clones>:
  400470:	b8 47 10 60 00       	mov    eax,0x601047
  400475:	55                   	push   rbp
  400476:	48 2d 40 10 60 00    	sub    rax,0x601040
  40047c:	48 83 f8 0e          	cmp    rax,0xe
  400480:	48 89 e5             	mov    rbp,rsp
  400483:	77 02                	ja     400487 <deregister_tm_clones+0x17>
  400485:	5d                   	pop    rbp
  400486:	c3                   	ret    
  400487:	b8 00 00 00 00       	mov    eax,0x0
  40048c:	48 85 c0             	test   rax,rax
  40048f:	74 f4                	je     400485 <deregister_tm_clones+0x15>
  400491:	5d                   	pop    rbp
  400492:	bf 40 10 60 00       	mov    edi,0x601040
  400497:	ff e0                	jmp    rax
  400499:	0f 1f 80 00 00 00 00 	nop    DWORD PTR [rax+0x0]

00000000004004a0 <register_tm_clones>:
  4004a0:	b8 40 10 60 00       	mov    eax,0x601040
  4004a5:	55                   	push   rbp
  4004a6:	48 2d 40 10 60 00    	sub    rax,0x601040
  4004ac:	48 c1 f8 03          	sar    rax,0x3
  4004b0:	48 89 e5             	mov    rbp,rsp
  4004b3:	48 89 c2             	mov    rdx,rax
  4004b6:	48 c1 ea 3f          	shr    rdx,0x3f
  4004ba:	48 01 d0             	add    rax,rdx
  4004bd:	48 d1 f8             	sar    rax,1
  4004c0:	75 02                	jne    4004c4 <register_tm_clones+0x24>
  4004c2:	5d                   	pop    rbp
  4004c3:	c3                   	ret    
  4004c4:	ba 00 00 00 00       	mov    edx,0x0
  4004c9:	48 85 d2             	test   rdx,rdx
  4004cc:	74 f4                	je     4004c2 <register_tm_clones+0x22>
  4004ce:	5d                   	pop    rbp
  4004cf:	48 89 c6             	mov    rsi,rax
  4004d2:	bf 40 10 60 00       	mov    edi,0x601040
  4004d7:	ff e2                	jmp    rdx
  4004d9:	0f 1f 80 00 00 00 00 	nop    DWORD PTR [rax+0x0]

00000000004004e0 <__do_global_dtors_aux>:
  4004e0:	80 3d 59 0b 20 00 00 	cmp    BYTE PTR [rip+0x200b59],0x0        # 601040 <__TMC_END__>
  4004e7:	75 11                	jne    4004fa <__do_global_dtors_aux+0x1a>
  4004e9:	55                   	push   rbp
  4004ea:	48 89 e5             	mov    rbp,rsp
  4004ed:	e8 7e ff ff ff       	call   400470 <deregister_tm_clones>
  4004f2:	5d                   	pop    rbp
  4004f3:	c6 05 46 0b 20 00 01 	mov    BYTE PTR [rip+0x200b46],0x1        # 601040 <__TMC_END__>
  4004fa:	f3 c3                	repz ret 
  4004fc:	0f 1f 40 00          	nop    DWORD PTR [rax+0x0]

0000000000400500 <frame_dummy>:
  400500:	48 83 3d 18 09 20 00 	cmp    QWORD PTR [rip+0x200918],0x0        # 600e20 <__JCR_END__>
  400507:	00 
  400508:	74 1e                	je     400528 <frame_dummy+0x28>
  40050a:	b8 00 00 00 00       	mov    eax,0x0
  40050f:	48 85 c0             	test   rax,rax
  400512:	74 14                	je     400528 <frame_dummy+0x28>
  400514:	55                   	push   rbp
  400515:	bf 20 0e 60 00       	mov    edi,0x600e20
  40051a:	48 89 e5             	mov    rbp,rsp
  40051d:	ff d0                	call   rax
  40051f:	5d                   	pop    rbp
  400520:	e9 7b ff ff ff       	jmp    4004a0 <register_tm_clones>
  400525:	0f 1f 00             	nop    DWORD PTR [rax]
  400528:	e9 73 ff ff ff       	jmp    4004a0 <register_tm_clones>
  40052d:	0f 1f 00             	nop    DWORD PTR [rax]

0000000000400530 <foo>:
  400530:	55                   	push   rbp
  400531:	48 89 e5             	mov    rbp,rsp
  400534:	0f 57 c9             	xorps  xmm1,xmm1
  400537:	f2 0f 11 45 f8       	movsd  QWORD PTR [rbp-0x8],xmm0
  40053c:	0f 28 c1             	movaps xmm0,xmm1
  40053f:	5d                   	pop    rbp
  400540:	c3                   	ret    
  400541:	66 66 66 66 66 66 2e 	data16 data16 data16 data16 data16 nop WORD PTR cs:[rax+rax*1+0x0]
  400548:	0f 1f 84 00 00 00 00 
  40054f:	00 

0000000000400550 <main>:
  400550:	55                   	push   rbp
  400551:	48 89 e5             	mov    rbp,rsp
  400554:	48 83 ec 50          	sub    rsp,0x50
  400558:	0f 57 c0             	xorps  xmm0,xmm0
  40055b:	48 b8 0b ab 9c ee 00 	movabs rax,0xee9cab0b
  400562:	00 00 00 
  400565:	f2 48 0f 2a c8       	cvtsi2sd xmm1,rax
  40056a:	48 b8 9e 5c ab 4f 00 	movabs rax,0x4fab5c9e
  400571:	00 00 00 
  400574:	f2 48 0f 2a d0       	cvtsi2sd xmm2,rax
  400579:	c7 45 fc 00 00 00 00 	mov    DWORD PTR [rbp-0x4],0x0
  400580:	f2 0f 11 55 e8       	movsd  QWORD PTR [rbp-0x18],xmm2
  400585:	f2 0f 11 4d f0       	movsd  QWORD PTR [rbp-0x10],xmm1
  40058a:	f2 0f 10 4d f0       	movsd  xmm1,QWORD PTR [rbp-0x10]
  40058f:	f2 0f 58 4d e8       	addsd  xmm1,QWORD PTR [rbp-0x18]
  400594:	f2 0f 11 4d e0       	movsd  QWORD PTR [rbp-0x20],xmm1
  400599:	f2 0f 10 4d f0       	movsd  xmm1,QWORD PTR [rbp-0x10]
  40059e:	f2 0f 5c 4d e8       	subsd  xmm1,QWORD PTR [rbp-0x18]
  4005a3:	f2 0f 11 4d d8       	movsd  QWORD PTR [rbp-0x28],xmm1
  4005a8:	f2 0f 10 4d f0       	movsd  xmm1,QWORD PTR [rbp-0x10]
  4005ad:	f2 0f 59 4d e8       	mulsd  xmm1,QWORD PTR [rbp-0x18]
  4005b2:	f2 0f 11 4d d0       	movsd  QWORD PTR [rbp-0x30],xmm1
  4005b7:	f2 0f 10 4d f0       	movsd  xmm1,QWORD PTR [rbp-0x10]
  4005bc:	f2 0f 5e 4d e8       	divsd  xmm1,QWORD PTR [rbp-0x18]
  4005c1:	f2 0f 11 4d c8       	movsd  QWORD PTR [rbp-0x38],xmm1
  4005c6:	f2 0f 10 4d e0       	movsd  xmm1,QWORD PTR [rbp-0x20]
  4005cb:	f2 0f 59 4d d8       	mulsd  xmm1,QWORD PTR [rbp-0x28]
  4005d0:	f2 0f 5e 4d d0       	divsd  xmm1,QWORD PTR [rbp-0x30]
  4005d5:	f2 0f 58 4d c8       	addsd  xmm1,QWORD PTR [rbp-0x38]
  4005da:	f2 0f 11 4d c0       	movsd  QWORD PTR [rbp-0x40],xmm1
  4005df:	66 0f 2e 45 c0       	ucomisd xmm0,QWORD PTR [rbp-0x40]
  4005e4:	0f 86 0d 00 00 00    	jbe    4005f7 <main+0xa7>
  4005ea:	f2 0f 2c 45 e0       	cvttsd2si eax,QWORD PTR [rbp-0x20]
  4005ef:	89 45 fc             	mov    DWORD PTR [rbp-0x4],eax
  4005f2:	e9 c5 00 00 00       	jmp    4006bc <main+0x16c>
  4005f7:	0f 57 c0             	xorps  xmm0,xmm0
  4005fa:	f2 0f 10 4d c0       	movsd  xmm1,QWORD PTR [rbp-0x40]
  4005ff:	66 0f 2e c8          	ucomisd xmm1,xmm0
  400603:	0f 82 27 00 00 00    	jb     400630 <main+0xe0>
  400609:	48 b8 05 00 00 00 00 	movabs rax,0x5
  400610:	00 00 00 
  400613:	f2 48 0f 2a c0       	cvtsi2sd xmm0,rax
  400618:	66 0f 2e 45 c0       	ucomisd xmm0,QWORD PTR [rbp-0x40]
  40061d:	0f 86 0d 00 00 00    	jbe    400630 <main+0xe0>
  400623:	f2 0f 2c 45 d8       	cvttsd2si eax,QWORD PTR [rbp-0x28]
  400628:	89 45 fc             	mov    DWORD PTR [rbp-0x4],eax
  40062b:	e9 8c 00 00 00       	jmp    4006bc <main+0x16c>
  400630:	48 b8 05 00 00 00 00 	movabs rax,0x5
  400637:	00 00 00 
  40063a:	f2 48 0f 2a c0       	cvtsi2sd xmm0,rax
  40063f:	f2 0f 10 4d c0       	movsd  xmm1,QWORD PTR [rbp-0x40]
  400644:	66 0f 2e c8          	ucomisd xmm1,xmm0
  400648:	0f 85 13 00 00 00    	jne    400661 <main+0x111>
  40064e:	0f 8a 0d 00 00 00    	jp     400661 <main+0x111>
  400654:	f2 0f 2c 45 d0       	cvttsd2si eax,QWORD PTR [rbp-0x30]
  400659:	89 45 fc             	mov    DWORD PTR [rbp-0x4],eax
  40065c:	e9 5b 00 00 00       	jmp    4006bc <main+0x16c>
  400661:	e9 00 00 00 00       	jmp    400666 <main+0x116>
  400666:	0f 57 c0             	xorps  xmm0,xmm0
  400669:	f2 0f 10 4d c0       	movsd  xmm1,QWORD PTR [rbp-0x40]
  40066e:	66 0f 2e c8          	ucomisd xmm1,xmm0
  400672:	0f 86 33 00 00 00    	jbe    4006ab <main+0x15b>
  400678:	48 8d 3c 25 60 07 40 	lea    rdi,ds:0x400760
  40067f:	00 
  400680:	f2 0f 10 45 c0       	movsd  xmm0,QWORD PTR [rbp-0x40]
  400685:	b0 01                	mov    al,0x1
  400687:	e8 84 fd ff ff       	call   400410 <printf@plt>
  40068c:	f2 0f 10 04 25 58 07 	movsd  xmm0,QWORD PTR ds:0x400758
  400693:	40 00 
  400695:	f2 0f 10 4d c0       	movsd  xmm1,QWORD PTR [rbp-0x40]
  40069a:	f2 0f 5c c8          	subsd  xmm1,xmm0
  40069e:	f2 0f 11 4d c0       	movsd  QWORD PTR [rbp-0x40],xmm1
  4006a3:	89 45 bc             	mov    DWORD PTR [rbp-0x44],eax
  4006a6:	e9 bb ff ff ff       	jmp    400666 <main+0x116>
  4006ab:	f2 0f 10 45 c0       	movsd  xmm0,QWORD PTR [rbp-0x40]
  4006b0:	e8 7b fe ff ff       	call   400530 <foo>
  4006b5:	f2 0f 2c c0          	cvttsd2si eax,xmm0
  4006b9:	89 45 fc             	mov    DWORD PTR [rbp-0x4],eax
  4006bc:	8b 45 fc             	mov    eax,DWORD PTR [rbp-0x4]
  4006bf:	48 83 c4 50          	add    rsp,0x50
  4006c3:	5d                   	pop    rbp
  4006c4:	c3                   	ret    
  4006c5:	66 2e 0f 1f 84 00 00 	nop    WORD PTR cs:[rax+rax*1+0x0]
  4006cc:	00 00 00 
  4006cf:	90                   	nop

00000000004006d0 <__libc_csu_init>:
  4006d0:	41 57                	push   r15
  4006d2:	41 89 ff             	mov    r15d,edi
  4006d5:	41 56                	push   r14
  4006d7:	49 89 f6             	mov    r14,rsi
  4006da:	41 55                	push   r13
  4006dc:	49 89 d5             	mov    r13,rdx
  4006df:	41 54                	push   r12
  4006e1:	4c 8d 25 28 07 20 00 	lea    r12,[rip+0x200728]        # 600e10 <__frame_dummy_init_array_entry>
  4006e8:	55                   	push   rbp
  4006e9:	48 8d 2d 28 07 20 00 	lea    rbp,[rip+0x200728]        # 600e18 <__init_array_end>
  4006f0:	53                   	push   rbx
  4006f1:	4c 29 e5             	sub    rbp,r12
  4006f4:	31 db                	xor    ebx,ebx
  4006f6:	48 c1 fd 03          	sar    rbp,0x3
  4006fa:	48 83 ec 08          	sub    rsp,0x8
  4006fe:	e8 dd fc ff ff       	call   4003e0 <_init>
  400703:	48 85 ed             	test   rbp,rbp
  400706:	74 1e                	je     400726 <__libc_csu_init+0x56>
  400708:	0f 1f 84 00 00 00 00 	nop    DWORD PTR [rax+rax*1+0x0]
  40070f:	00 
  400710:	4c 89 ea             	mov    rdx,r13
  400713:	4c 89 f6             	mov    rsi,r14
  400716:	44 89 ff             	mov    edi,r15d
  400719:	41 ff 14 dc          	call   QWORD PTR [r12+rbx*8]
  40071d:	48 83 c3 01          	add    rbx,0x1
  400721:	48 39 eb             	cmp    rbx,rbp
  400724:	75 ea                	jne    400710 <__libc_csu_init+0x40>
  400726:	48 83 c4 08          	add    rsp,0x8
  40072a:	5b                   	pop    rbx
  40072b:	5d                   	pop    rbp
  40072c:	41 5c                	pop    r12
  40072e:	41 5d                	pop    r13
  400730:	41 5e                	pop    r14
  400732:	41 5f                	pop    r15
  400734:	c3                   	ret    
  400735:	66 66 2e 0f 1f 84 00 	data16 nop WORD PTR cs:[rax+rax*1+0x0]
  40073c:	00 00 00 00 

0000000000400740 <__libc_csu_fini>:
  400740:	f3 c3                	repz ret 

Disassembly of section .fini:

0000000000400744 <_fini>:
  400744:	48 83 ec 08          	sub    rsp,0x8
  400748:	48 83 c4 08          	add    rsp,0x8
  40074c:	c3                   	ret    
