
testfiles/simpleblock:     file format elf64-x86-64


Disassembly of section .init:

0000000000400370 <_init>:
  400370:	48 83 ec 08          	sub    $0x8,%rsp
  400374:	48 8b 05 7d 0c 20 00 	mov    0x200c7d(%rip),%rax        # 600ff8 <__gmon_start__>
  40037b:	48 85 c0             	test   %rax,%rax
  40037e:	74 02                	je     400382 <_init+0x12>
  400380:	ff d0                	callq  *%rax
  400382:	48 83 c4 08          	add    $0x8,%rsp
  400386:	c3                   	retq

Disassembly of section .text:

0000000000400390 <_start>:
# rsp = n
  400390:	31 ed                	xor    %ebp,%ebp
  400392:	49 89 d1             	mov    %rdx,%r9         # data?
  400395:	5e                   	pop    %rsi             # rsi := argc & rsp := argv (rsp <- n+(sizeof RSI))
  400396:	48 89 e2             	mov    %rsp,%rdx        # rdx := rsp
  400399:	48 83 e4 f0          	and    $0xfffffffffffffff0,%rsp # move stackpointer? why? (rsp <- n)
  40039d:	50                   	push   %rax
  40039e:	54                   	push   %rsp
  40039f:	49 c7 c0 40 05 40 00 	mov    $0x400540,%r8    # %r8 := <__libc_csu_fini>
  4003a6:	48 c7 c1 d0 04 40 00 	mov    $0x4004d0,%rcx   # %rcx := <__libc_csu_init>
  4003ad:	48 c7 c7 80 04 40 00 	mov    $0x400480,%rdi   # %rdi := <main>
  4003b4:	ff 15 36 0c 20 00    	callq  *0x200c36(%rip)        # 600ff0 <__libc_start_main@GLIBC_2.2.5>
  4003ba:	f4                   	hlt
  4003bb:	0f 1f 44 00 00       	nopl   0x0(%rax,%rax,1)

00000000004003c0 <_dl_relocate_static_pie>:
  4003c0:	f3 c3                	repz retq
  4003c2:	66 2e 0f 1f 84 00 00 	nopw   %cs:0x0(%rax,%rax,1)
  4003c9:	00 00 00
  4003cc:	0f 1f 40 00          	nopl   0x0(%rax)

00000000004003d0 <deregister_tm_clones>:
  4003d0:	55                   	push   %rbp
  4003d1:	b8 28 10 60 00       	mov    $0x601028,%eax
  4003d6:	48 3d 28 10 60 00    	cmp    $0x601028,%rax
  4003dc:	48 89 e5             	mov    %rsp,%rbp
  4003df:	74 17                	je     4003f8 <deregister_tm_clones+0x28>
  4003e1:	b8 00 00 00 00       	mov    $0x0,%eax
  4003e6:	48 85 c0             	test   %rax,%rax
  4003e9:	74 0d                	je     4003f8 <deregister_tm_clones+0x28>
  4003eb:	5d                   	pop    %rbp
  4003ec:	bf 28 10 60 00       	mov    $0x601028,%edi
  4003f1:	ff e0                	jmpq   *%rax
  4003f3:	0f 1f 44 00 00       	nopl   0x0(%rax,%rax,1)
  4003f8:	5d                   	pop    %rbp
  4003f9:	c3                   	retq
  4003fa:	66 0f 1f 44 00 00    	nopw   0x0(%rax,%rax,1)

0000000000400400 <register_tm_clones>:
  400400:	be 28 10 60 00       	mov    $0x601028,%esi
  400405:	55                   	push   %rbp
  400406:	48 81 ee 28 10 60 00 	sub    $0x601028,%rsi
  40040d:	48 89 e5             	mov    %rsp,%rbp
  400410:	48 c1 fe 03          	sar    $0x3,%rsi
  400414:	48 89 f0             	mov    %rsi,%rax
  400417:	48 c1 e8 3f          	shr    $0x3f,%rax
  40041b:	48 01 c6             	add    %rax,%rsi
  40041e:	48 d1 fe             	sar    %rsi
  400421:	74 15                	je     400438 <register_tm_clones+0x38>
  400423:	b8 00 00 00 00       	mov    $0x0,%eax
  400428:	48 85 c0             	test   %rax,%rax
  40042b:	74 0b                	je     400438 <register_tm_clones+0x38>
  40042d:	5d                   	pop    %rbp
  40042e:	bf 28 10 60 00       	mov    $0x601028,%edi
  400433:	ff e0                	jmpq   *%rax
  400435:	0f 1f 00             	nopl   (%rax)
  400438:	5d                   	pop    %rbp
  400439:	c3                   	retq
  40043a:	66 0f 1f 44 00 00    	nopw   0x0(%rax,%rax,1)

0000000000400440 <__do_global_dtors_aux>:
  400440:	80 3d e1 0b 20 00 00 	cmpb   $0x0,0x200be1(%rip)        # 601028 <__TMC_END__>
  400447:	75 17                	jne    400460 <__do_global_dtors_aux+0x20>
  400449:	55                   	push   %rbp
  40044a:	48 89 e5             	mov    %rsp,%rbp
  40044d:	e8 7e ff ff ff       	callq  4003d0 <deregister_tm_clones>
  400452:	c6 05 cf 0b 20 00 01 	movb   $0x1,0x200bcf(%rip)        # 601028 <__TMC_END__>
  400459:	5d                   	pop    %rbp
  40045a:	c3                   	retq
  40045b:	0f 1f 44 00 00       	nopl   0x0(%rax,%rax,1)
  400460:	f3 c3                	repz retq
  400462:	0f 1f 40 00          	nopl   0x0(%rax)
  400466:	66 2e 0f 1f 84 00 00 	nopw   %cs:0x0(%rax,%rax,1)
  40046d:	00 00 00

0000000000400470 <frame_dummy>:
  400470:	55                   	push   %rbp
  400471:	48 89 e5             	mov    %rsp,%rbp
  400474:	5d                   	pop    %rbp
  400475:	eb 89                	jmp    400400 <register_tm_clones>
  400477:	66 0f 1f 84 00 00 00 	nopw   0x0(%rax,%rax,1)
  40047e:	00 00

0000000000400480 <main>:
  400480:	55                   	push   %rbp
  400481:	48 89 e5             	mov    %rsp,%rbp
  400484:	31 c0                	xor    %eax,%eax
  400486:	f2 0f 10 05 ca 00 00 	movsd  0xca(%rip),%xmm0        # 400558 <_IO_stdin_used+0x8>
  40048d:	00
  40048e:	f2 0f 10 0d ca 00 00 	movsd  0xca(%rip),%xmm1        # 400560 <_IO_stdin_used+0x10>
  400495:	00
  400496:	c7 45 fc 00 00 00 00 	movl   $0x0,-0x4(%rbp)
  40049d:	c7 45 f8 0a 00 00 00 	movl   $0xa,-0x8(%rbp)
  4004a4:	f2 0f 11 4d f0       	movsd  %xmm1,-0x10(%rbp)
  4004a9:	f2 0f 11 45 e8       	movsd  %xmm0,-0x18(%rbp)
  4004ae:	8b 4d f8             	mov    -0x8(%rbp),%ecx
  4004b1:	f2 0f 2a c1          	cvtsi2sd %ecx,%xmm0
  4004b5:	f2 0f 59 45 e8       	mulsd  -0x18(%rbp),%xmm0
  4004ba:	f2 0f 58 45 f0       	addsd  -0x10(%rbp),%xmm0
  4004bf:	f2 0f 11 45 e0       	movsd  %xmm0,-0x20(%rbp)
  4004c4:	5d                   	pop    %rbp
  4004c5:	c3                   	retq
  4004c6:	66 2e 0f 1f 84 00 00 	nopw   %cs:0x0(%rax,%rax,1)
  4004cd:	00 00 00

00000000004004d0 <__libc_csu_init>:
  4004d0:	41 57                	push   %r15
  4004d2:	41 56                	push   %r14
  4004d4:	49 89 d7             	mov    %rdx,%r15
  4004d7:	41 55                	push   %r13
  4004d9:	41 54                	push   %r12
  4004db:	4c 8d 25 6e 09 20 00 	lea    0x20096e(%rip),%r12        # 600e50 <__frame_dummy_init_array_entry>
  4004e2:	55                   	push   %rbp
  4004e3:	48 8d 2d 6e 09 20 00 	lea    0x20096e(%rip),%rbp        # 600e58 <__init_array_end>
  4004ea:	53                   	push   %rbx
  4004eb:	41 89 fd             	mov    %edi,%r13d
  4004ee:	49 89 f6             	mov    %rsi,%r14
  4004f1:	4c 29 e5             	sub    %r12,%rbp
  4004f4:	48 83 ec 08          	sub    $0x8,%rsp
  4004f8:	48 c1 fd 03          	sar    $0x3,%rbp
  4004fc:	e8 6f fe ff ff       	callq  400370 <_init>
  400501:	48 85 ed             	test   %rbp,%rbp
  400504:	74 20                	je     400526 <__libc_csu_init+0x56>
  400506:	31 db                	xor    %ebx,%ebx
  400508:	0f 1f 84 00 00 00 00 	nopl   0x0(%rax,%rax,1)
  40050f:	00
  400510:	4c 89 fa             	mov    %r15,%rdx
  400513:	4c 89 f6             	mov    %r14,%rsi
  400516:	44 89 ef             	mov    %r13d,%edi
  400519:	41 ff 14 dc          	callq  *(%r12,%rbx,8)
  40051d:	48 83 c3 01          	add    $0x1,%rbx
  400521:	48 39 dd             	cmp    %rbx,%rbp
  400524:	75 ea                	jne    400510 <__libc_csu_init+0x40>
  400526:	48 83 c4 08          	add    $0x8,%rsp
  40052a:	5b                   	pop    %rbx
  40052b:	5d                   	pop    %rbp
  40052c:	41 5c                	pop    %r12
  40052e:	41 5d                	pop    %r13
  400530:	41 5e                	pop    %r14
  400532:	41 5f                	pop    %r15
  400534:	c3                   	retq
  400535:	90                   	nop
  400536:	66 2e 0f 1f 84 00 00 	nopw   %cs:0x0(%rax,%rax,1)
  40053d:	00 00 00

0000000000400540 <__libc_csu_fini>:
  400540:	f3 c3                	repz retq

Disassembly of section .fini:

0000000000400544 <_fini>:
  400544:	48 83 ec 08          	sub    $0x8,%rsp
  400548:	48 83 c4 08          	add    $0x8,%rsp
  40054c:	c3                   	retq
